; Function Attrs: mustprogress nounwind uwtable
define internal void @_ZN32pxrInternal_v0_24__pxrReserved__12_GLOBAL__N_120_DataSourceRenderVarD0Ev(ptr noundef nonnull align 8 dereferenceable(48) %0) unnamed_addr #2 align 2 personality ptr @__gxx_personality_v0 {
  store ptr getelementptr inbounds inrange(-16, 32) (i8, ptr @_ZTVN32pxrInternal_v0_24__pxrReserved__12_GLOBAL__N_120_DataSourceRenderVarE, i64 16), ptr %0, align 8
  %2 = getelementptr inbounds nuw i8, ptr %0, i64 16
  tail call void @_ZN32pxrInternal_v0_24__pxrReserved__12UsdRenderVarD1Ev(ptr noundef nonnull align 8 dereferenceable(24) %2) #21
  %3 = getelementptr inbounds nuw i8, ptr %0, i64 8
  %4 = load i32, ptr %3, align 8
  %.not.i.i.i = icmp eq i32 %4, 0
  br i1 %.not.i.i.i, label %_ZN32pxrInternal_v0_24__pxrReserved__12_GLOBAL__N_120_DataSourceRenderVarD2Ev.exit, label %5

5:                                                ; preds = %1
  %6 = and i32 %4, 255
  %7 = lshr i32 %4, 8
  %8 = zext nneg i32 %6 to i64
  %9 = getelementptr inbounds [257 x ptr], ptr @_ZN32pxrInternal_v0_24__pxrReserved__8Sdf_PoolINS_15Sdf_PathPrimTagELj24ELj8ELj16384EE13_regionStartsE, i64 0, i64 %8
  %10 = load ptr, ptr %9, align 8
  %11 = mul nuw nsw i32 %7, 24
  %12 = zext nneg i32 %11 to i64
  %13 = getelementptr inbounds i8, ptr %10, i64 %12
  %14 = getelementptr inbounds nuw i8, ptr %13, i64 8
  %15 = atomicrmw sub ptr %14, i32 1 seq_cst, align 4
  %16 = and i32 %15, 2147483647
  %17 = icmp eq i32 %16, 1
  br i1 %17, label %18, label %_ZN32pxrInternal_v0_24__pxrReserved__12_GLOBAL__N_120_DataSourceRenderVarD2Ev.exit

18:                                               ; preds = %5
  invoke void @_ZNK32pxrInternal_v0_24__pxrReserved__12Sdf_PathNode8_DestroyEv(ptr noundef nonnull align 8 dereferenceable(16) %13)
          to label %_ZN32pxrInternal_v0_24__pxrReserved__12_GLOBAL__N_120_DataSourceRenderVarD2Ev.exit unwind label %19

19:                                               ; preds = %18
  %20 = landingpad { ptr, i32 }
          catch ptr null
  %21 = extractvalue { ptr, i32 } %20, 0
  tail call void @__clang_call_terminate(ptr %21) #20
  unreachable

_ZN32pxrInternal_v0_24__pxrReserved__12_GLOBAL__N_120_DataSourceRenderVarD2Ev.exit: ; preds = %1, %5, %18
  tail call void @_ZN32pxrInternal_v0_24__pxrReserved__16HdDataSourceBaseD2Ev(ptr noundef nonnull align 8 dereferenceable(8) %0) #21
  tail call void @_ZdlPvm(ptr noundef nonnull %0, i64 noundef 48) #22
  ret void
}